
key_led_c_elf:     file format elf32-littlearm

Disassembly of section .text:

00000000 <_start>:
   0:	e3a00453 	mov	r0, #1392508928	; 0x53000000
   4:	e3a01000 	mov	r1, #0	; 0x0
   8:	e5801000 	str	r1, [r0]
   c:	e3a0da01 	mov	sp, #4096	; 0x1000
  10:	eb000000 	bl	18 <main>

00000014 <halt_loop>:
  14:	eafffffe 	b	14 <halt_loop>

00000018 <main>:
  18:	e1a0c00d 	mov	ip, sp
  1c:	e92dd800 	stmdb	sp!, {fp, ip, lr, pc}
  20:	e24cb004 	sub	fp, ip, #4	; 0x4
  24:	e24dd004 	sub	sp, sp, #4	; 0x4
  28:	e3a02456 	mov	r2, #1442840576	; 0x56000000
  2c:	e2822050 	add	r2, r2, #80	; 0x50
  30:	e3a03456 	mov	r3, #1442840576	; 0x56000000
  34:	e2833050 	add	r3, r3, #80	; 0x50
  38:	e5933000 	ldr	r3, [r3]
  3c:	e3c330c0 	bic	r3, r3, #192	; 0xc0
  40:	e5823000 	str	r3, [r2]
  44:	e3a02456 	mov	r2, #1442840576	; 0x56000000
  48:	e2822050 	add	r2, r2, #80	; 0x50
  4c:	e3a03456 	mov	r3, #1442840576	; 0x56000000
  50:	e2833050 	add	r3, r3, #80	; 0x50
  54:	e5933000 	ldr	r3, [r3]
  58:	e3833040 	orr	r3, r3, #64	; 0x40
  5c:	e5823000 	str	r3, [r2]
  60:	e3a02456 	mov	r2, #1442840576	; 0x56000000
  64:	e2822010 	add	r2, r2, #16	; 0x10
  68:	e3a03456 	mov	r3, #1442840576	; 0x56000000
  6c:	e2833010 	add	r3, r3, #16	; 0x10
  70:	e5933000 	ldr	r3, [r3]
  74:	e3c33a03 	bic	r3, r3, #12288	; 0x3000
  78:	e5823000 	str	r3, [r2]
  7c:	e3a03456 	mov	r3, #1442840576	; 0x56000000
  80:	e2833014 	add	r3, r3, #20	; 0x14
  84:	e5933000 	ldr	r3, [r3]
  88:	e50b3010 	str	r3, [fp, #-16]
  8c:	e51b3010 	ldr	r3, [fp, #-16]
  90:	e2033040 	and	r3, r3, #64	; 0x40
  94:	e3530000 	cmp	r3, #0	; 0x0
  98:	0a000007 	beq	bc <main+0xa4>
  9c:	e3a02456 	mov	r2, #1442840576	; 0x56000000
  a0:	e2822054 	add	r2, r2, #84	; 0x54
  a4:	e3a03456 	mov	r3, #1442840576	; 0x56000000
  a8:	e2833054 	add	r3, r3, #84	; 0x54
  ac:	e5933000 	ldr	r3, [r3]
  b0:	e3833008 	orr	r3, r3, #8	; 0x8
  b4:	e5823000 	str	r3, [r2]
  b8:	eaffffef 	b	7c <main+0x64>
  bc:	e3a02456 	mov	r2, #1442840576	; 0x56000000
  c0:	e2822054 	add	r2, r2, #84	; 0x54
  c4:	e3a03456 	mov	r3, #1442840576	; 0x56000000
  c8:	e2833054 	add	r3, r3, #84	; 0x54
  cc:	e5933000 	ldr	r3, [r3]
  d0:	e3c33008 	bic	r3, r3, #8	; 0x8
  d4:	e5823000 	str	r3, [r2]
  d8:	eaffffe7 	b	7c <main+0x64>